target datalayout = "e-m:e-p270:32:32-p271:32:32-p272:64:64-i64:64-i128:128-f80:128-n8:16:32:64-S128"
target triple = "x86_64-pc-linux-gnu"

%struct.ZSTD_customMem = type { ptr, ptr, ptr }
%struct.ZSTD_frameParameters = type { i32, i32, i32 }
%struct.ZSTD_compressionParameters = type { i32, i32, i32, i32, i32, i32, i32 }
%struct.ZSTD_CCtx_params_s = type { i32, %struct.ZSTD_compressionParameters, %struct.ZSTD_frameParameters, i32, i32, i64, i32, i32, i32, i32, i64, i32, i32, %struct.ldmParams_t, i32, i32, i32, i32, i32, i32, i32, i32, %struct.ZSTD_customMem, i32, i32, i32, i64, i32 }
%struct.ldmParams_t = type { i32, i32, i32, i32, i32, i32 }
%struct.ZSTD_cwksp = type { ptr, ptr, ptr, ptr, ptr, ptr, ptr, i8, i32, i32, i32 }
%struct.ZSTD_window_t = type { ptr, ptr, ptr, i32, i32, i32 }
%struct.ZSTD_matchState_t = type { %struct.ZSTD_window_t, i32, i32, i32, i32, ptr, [8 x i32], i64, i32, ptr, ptr, ptr, i32, i32, %struct.optState_t, ptr, %struct.ZSTD_compressionParameters, ptr, i32, i32 }
%struct.optState_t = type { ptr, ptr, ptr, ptr, ptr, ptr, i32, i32, i32, i32, i32, i32, i32, i32, i32, ptr, i32 }
%struct.ZSTD_compressedBlockState_t = type { %struct.ZSTD_entropyCTables_t, [3 x i32] }
%struct.ZSTD_entropyCTables_t = type { %struct.ZSTD_hufCTables_t, %struct.ZSTD_fseCTables_t }
%struct.ZSTD_hufCTables_t = type { [257 x i64], i32 }
%struct.ZSTD_fseCTables_t = type { [193 x i32], [363 x i32], [329 x i32], i32, i32, i32 }
%struct.ZSTD_CDict_s = type { ptr, i64, i32, ptr, %struct.ZSTD_cwksp, %struct.ZSTD_matchState_t, %struct.ZSTD_compressedBlockState_t, %struct.ZSTD_customMem, i32, i32, i32 }

@ZSTD_defaultCMem = internal constant %struct.ZSTD_customMem zeroinitializer, align 8

; Function Attrs: nounwind uwtable
define dso_local i64 @ZSTD_CCtxParams_init(ptr noundef %0, i32 noundef %1) #0 {
  %3 = alloca i64, align 8
  %4 = alloca ptr, align 8
  %5 = alloca i32, align 4
  store ptr %0, ptr %4, align 8
  store i32 %1, ptr %5, align 4
  %6 = load ptr, ptr %4, align 8
  %7 = icmp ne ptr %6, null
  br i1 %7, label %9, label %8

8:                                                ; preds = %2
  store i64 -1, ptr %3, align 8
  br label %17

9:                                                ; preds = %2
  %10 = load ptr, ptr %4, align 8
  call void @llvm.memset.p0.i64(ptr align 8 %10, i8 0, i64 208, i1 false)
  %11 = load i32, ptr %5, align 4
  %12 = load ptr, ptr %4, align 8
  %13 = getelementptr inbounds %struct.ZSTD_CCtx_params_s, ptr %12, i32 0, i32 3
  store i32 %11, ptr %13, align 4
  %14 = load ptr, ptr %4, align 8
  %15 = getelementptr inbounds %struct.ZSTD_CCtx_params_s, ptr %14, i32 0, i32 2
  %16 = getelementptr inbounds %struct.ZSTD_frameParameters, ptr %15, i32 0, i32 0
  store i32 1, ptr %16, align 8
  store i64 0, ptr %3, align 8
  br label %17

17:                                               ; preds = %9, %8
  %18 = load i64, ptr %3, align 8
  ret i64 %18
}

; Function Attrs: nounwind uwtable
define dso_local ptr @ZSTD_createCDict_advanced(ptr noundef %0, i64 noundef %1, i32 noundef %2, i32 noundef %3, ptr noundef byval(%struct.ZSTD_compressionParameters) align 8 %4, ptr noundef byval(%struct.ZSTD_customMem) align 8 %5) #0 {
  %7 = alloca ptr, align 8
  %8 = alloca i64, align 8
  %9 = alloca i32, align 4
  %10 = alloca i32, align 4
  %11 = alloca %struct.ZSTD_CCtx_params_s, align 8
  store ptr %0, ptr %7, align 8
  store i64 %1, ptr %8, align 8
  store i32 %2, ptr %9, align 4
  store i32 %3, ptr %10, align 4
  call void @llvm.memset.p0.i64(ptr align 8 %11, i8 0, i64 208, i1 false)
  %12 = call i64 @ZSTD_CCtxParams_init(ptr noundef %11, i32 noundef 0)
  %13 = getelementptr inbounds %struct.ZSTD_CCtx_params_s, ptr %11, i32 0, i32 1
  call void @llvm.memcpy.p0.p0.i64(ptr align 4 %13, ptr align 8 %4, i64 28, i1 false)
  %14 = getelementptr inbounds %struct.ZSTD_CCtx_params_s, ptr %11, i32 0, i32 22
  call void @llvm.memcpy.p0.p0.i64(ptr align 8 %14, ptr align 8 %5, i64 24, i1 false)
  %15 = load ptr, ptr %7, align 8
  %16 = load i64, ptr %8, align 8
  %17 = load i32, ptr %9, align 4
  %18 = load i32, ptr %10, align 4
  %19 = call ptr @ZSTD_createCDict_advanced2(ptr noundef %15, i64 noundef %16, i32 noundef %17, i32 noundef %18, ptr noundef %11, ptr noundef byval(%struct.ZSTD_customMem) align 8 %5)
  ret ptr %19
}

; Function Attrs: nounwind uwtable
define dso_local ptr @ZSTD_createCDict(ptr noundef %0, i64 noundef %1, i32 noundef %2) #0 {
  %4 = alloca ptr, align 8
  %5 = alloca i64, align 8
  %6 = alloca i32, align 4
  %7 = alloca %struct.ZSTD_compressionParameters, align 8
  %8 = alloca ptr, align 8
  store ptr %0, ptr %4, align 8
  store i64 %1, ptr %5, align 8
  store i32 %2, ptr %6, align 4
  %9 = load i32, ptr %6, align 4
  %10 = load i64, ptr %5, align 8
  call void @ZSTD_getCParams_internal(ptr dead_on_unwind writable sret(%struct.ZSTD_compressionParameters) align 4 %7, i32 noundef %9, i64 noundef -1, i64 noundef %10, i32 noundef 2)
  %11 = load ptr, ptr %4, align 8
  %12 = load i64, ptr %5, align 8
  %13 = call ptr @ZSTD_createCDict_advanced(ptr noundef %11, i64 noundef %12, i32 noundef 0, i32 noundef 0, ptr noundef byval(%struct.ZSTD_compressionParameters) align 8 %7, ptr noundef byval(%struct.ZSTD_customMem) align 8 @ZSTD_defaultCMem)
  store ptr %13, ptr %8, align 8
  %14 = load ptr, ptr %8, align 8
  %15 = icmp ne ptr %14, null
  br i1 %15, label %16, label %26

16:                                               ; preds = %3
  %17 = load i32, ptr %6, align 4
  %18 = icmp eq i32 %17, 0
  br i1 %18, label %19, label %20

19:                                               ; preds = %16
  br label %22

20:                                               ; preds = %16
  %21 = load i32, ptr %6, align 4
  br label %22

22:                                               ; preds = %20, %19
  %23 = phi i32 [ 3, %19 ], [ %21, %20 ]
  %24 = load ptr, ptr %8, align 8
  %25 = getelementptr inbounds %struct.ZSTD_CDict_s, ptr %24, i32 0, i32 9
  store i32 %23, ptr %25, align 4
  br label %26

26:                                               ; preds = %22, %3
  %27 = load ptr, ptr %8, align 8
  ret ptr %27
}